ARM GAS  C:\Users\Lorenzo\AppData\Local\Temp\cc908eyd.s 			page 1


   1              		.syntax unified
   2              		.cpu cortex-m3
   3              		.fpu softvfp
   4              		.eabi_attribute 20, 1
   5              		.eabi_attribute 21, 1
   6              		.eabi_attribute 23, 3
   7              		.eabi_attribute 24, 1
   8              		.eabi_attribute 25, 1
   9              		.eabi_attribute 26, 1
  10              		.eabi_attribute 30, 1
  11              		.eabi_attribute 34, 1
  12              		.eabi_attribute 18, 4
  13              		.thumb
  14              		.syntax unified
  15              		.file	"main.c"
  16              		.text
  17              	.Ltext0:
  18              		.cfi_sections	.debug_frame
  19              		.global	__aeabi_i2d
  20              		.global	__aeabi_dmul
  21              		.global	__aeabi_d2f
  22              		.global	__aeabi_f2iz
  23              		.section	.text.main,"ax",%progbits
  24              		.align	2
  25              		.global	main
  26              		.thumb
  27              		.thumb_func
  28              		.type	main, %function
  29              	main:
  30              	.LFB64:
  31              		.file 1 "main.c"
   1:main.c        **** /**
   2:main.c        **** * \brief Main source file for the I2C-Master project.
   3:main.c        **** *
   4:main.c        **** * In this project we set up a I2C master device with
   5:main.c        **** * to understand the I2C protocol and communicate with a
   6:main.c        **** * a I2C Slave device (LIS3DH Accelerometer).
   7:main.c        **** *
   8:main.c        **** * In main.c the definition of constants for the registers,
   9:main.c        **** * the start of the components, the reading and writing of the registers, 
  10:main.c        **** * the set up of header and tail for the Bridge Control Panel and the variables 
  11:main.c        **** * declaration and initializations are performed.
  12:main.c        **** * Moreover, after the required conversion, the data are sent by means of the 
  13:main.c        **** * UART communication protocol.
  14:main.c        **** *
  15:main.c        **** * \author Lorenzo Francioli
  16:main.c        **** * \date April, 28th 2020
  17:main.c        **** */
  18:main.c        **** 
  19:main.c        **** // Include required header files
  20:main.c        **** #include "I2C_Interface.h"
  21:main.c        **** #include "project.h"
  22:main.c        **** #include "stdio.h"
  23:main.c        **** #include "InterruptRoutines.h"
  24:main.c        **** 
  25:main.c        **** /**
  26:main.c        **** *   \brief 7-bit I2C address of the slave device.
ARM GAS  C:\Users\Lorenzo\AppData\Local\Temp\cc908eyd.s 			page 2


  27:main.c        **** */
  28:main.c        **** #define LIS3DH_DEVICE_ADDRESS 0x18
  29:main.c        **** 
  30:main.c        **** /**
  31:main.c        **** *   \brief Address of the WHO AM I register
  32:main.c        **** */
  33:main.c        **** #define LIS3DH_WHO_AM_I_REG_ADDR 0x0F
  34:main.c        **** 
  35:main.c        **** /**
  36:main.c        **** *   \brief Address of the Status register
  37:main.c        **** */
  38:main.c        **** #define LIS3DH_STATUS_REG 0x27
  39:main.c        **** 
  40:main.c        **** /**
  41:main.c        **** *   \brief Address of the Control register 1
  42:main.c        **** */
  43:main.c        **** #define LIS3DH_CTRL_REG1 0x20
  44:main.c        **** 
  45:main.c        **** /**
  46:main.c        **** *   \brief Hex value to set normal mode to the accelerator
  47:main.c        **** */
  48:main.c        **** #define LIS3DH_NORMAL_MODE_CTRL_REG1 0x47
  49:main.c        **** 
  50:main.c        **** /**
  51:main.c        **** *   \brief  Address of the Temperature Sensor Configuration register
  52:main.c        **** */
  53:main.c        **** #define LIS3DH_TEMP_CFG_REG 0x1F
  54:main.c        **** 
  55:main.c        **** #define LIS3DH_TEMP_CFG_REG_ACTIVE 0xC0
  56:main.c        **** 
  57:main.c        **** /**
  58:main.c        **** *   \brief Address of the Control register 4
  59:main.c        **** */
  60:main.c        **** #define LIS3DH_CTRL_REG4 0x23
  61:main.c        **** 
  62:main.c        **** #define LIS3DH_CTRL_REG4_BDU_ACTIVE 0x80
  63:main.c        **** 
  64:main.c        **** /**
  65:main.c        **** *   \brief Address of the ADC output LSB register
  66:main.c        **** */
  67:main.c        **** #define LIS3DH_OUT_ADC_3L 0x0C
  68:main.c        **** 
  69:main.c        **** /**
  70:main.c        **** *   \brief Address of the ADC output MSB register
  71:main.c        **** */
  72:main.c        **** #define LIS3DH_OUT_ADC_3H 0x0D
  73:main.c        **** 
  74:main.c        **** /*
  75:main.c        ****     ADRESS register OUT_X_L
  76:main.c        **** */
  77:main.c        **** #define LIS3DH_OUT_X_L 0x28
  78:main.c        **** 
  79:main.c        **** /**
  80:main.c        **** *   \brief Hex value to set normal mode to the accelerator
  81:main.c        **** */
  82:main.c        **** #define LIS3DH_HIGH_MODE_CTRL_REG1_ACC 0x57 //01010111 to set 100 Hz, high resolution mode and enab
  83:main.c        **** 
ARM GAS  C:\Users\Lorenzo\AppData\Local\Temp\cc908eyd.s 			page 3


  84:main.c        **** #define LIS3DH_CTRL_REG4_HIGH_MODE_4G 0x18  //00011000 to set full scale range +-4g (with FS1 FS0),
  85:main.c        **** 
  86:main.c        **** 
  87:main.c        **** #define TRANSMIT_BUFFER_SIZE 14 // 1 byte for header, 3 byte for X data, 3 byte for Y data, 3 byte 
  88:main.c        **** 
  89:main.c        **** #define CONVERSION_FACTOR_DIGIT_MG 2 // from datasheet, convert from digit to mg with a FSR +- 4g
  90:main.c        **** 
  91:main.c        **** #define g_CONSTANT 9.81
  92:main.c        **** 
  93:main.c        **** int main(void)
  94:main.c        **** {
  32              		.loc 1 94 0
  33              		.cfi_startproc
  34              		@ args = 0, pretend = 0, frame = 72
  35              		@ frame_needed = 0, uses_anonymous_args = 0
  36 0000 F0B5     		push	{r4, r5, r6, r7, lr}
  37              		.cfi_def_cfa_offset 20
  38              		.cfi_offset 4, -20
  39              		.cfi_offset 5, -16
  40              		.cfi_offset 6, -12
  41              		.cfi_offset 7, -8
  42              		.cfi_offset 14, -4
  43 0002 93B0     		sub	sp, sp, #76
  44              		.cfi_def_cfa_offset 96
  95:main.c        ****     CyGlobalIntEnable; /* Enable global interrupts. */
  45              		.loc 1 95 0
  46              		.syntax unified
  47              	@ 95 "main.c" 1
  48 0004 62B6     		CPSIE   i
  49              	@ 0 "" 2
  96:main.c        **** 
  97:main.c        ****     /* Place your initialization/startup code here (e.g. MyInst_Start()) */
  98:main.c        ****     I2C_Peripheral_Start();
  50              		.loc 1 98 0
  51              		.thumb
  52              		.syntax unified
  53 0006 FFF7FEFF 		bl	I2C_Peripheral_Start
  54              	.LVL0:
  99:main.c        ****     UART_Debug_Start();
  55              		.loc 1 99 0
  56 000a FFF7FEFF 		bl	UART_Debug_Start
  57              	.LVL1:
 100:main.c        ****     isr_TIMER_StartEx(Custom_TIMER_ISR);
  58              		.loc 1 100 0
  59 000e A248     		ldr	r0, .L24+8
  60 0010 FFF7FEFF 		bl	isr_TIMER_StartEx
  61              	.LVL2:
 101:main.c        ****     
 102:main.c        ****     CyDelay(5); //"The boot procedure is complete about 5 milliseconds after device power-up."
  62              		.loc 1 102 0
  63 0014 0520     		movs	r0, #5
  64 0016 FFF7FEFF 		bl	CyDelay
  65              	.LVL3:
  66              	.LBB2:
 103:main.c        ****     
 104:main.c        ****     // String to print out messages on the UART
 105:main.c        ****     char message[50];
ARM GAS  C:\Users\Lorenzo\AppData\Local\Temp\cc908eyd.s 			page 4


 106:main.c        **** 
 107:main.c        ****     // Check which devices are present on the I2C bus
 108:main.c        ****     for (int i = 0 ; i < 128; i++)
  67              		.loc 1 108 0
  68 001a 0024     		movs	r4, #0
  69 001c 0CE0     		b	.L2
  70              	.LVL4:
  71              	.L4:
 109:main.c        ****     {
 110:main.c        ****         if (I2C_Peripheral_IsDeviceConnected(i))
  72              		.loc 1 110 0
  73 001e E0B2     		uxtb	r0, r4
  74 0020 FFF7FEFF 		bl	I2C_Peripheral_IsDeviceConnected
  75              	.LVL5:
  76 0024 38B1     		cbz	r0, .L3
 111:main.c        ****         {
 112:main.c        ****             // print out the address is hex format
 113:main.c        ****             sprintf(message, "Device 0x%02X is connected\r\n", i);
  77              		.loc 1 113 0
  78 0026 2246     		mov	r2, r4
  79 0028 9C49     		ldr	r1, .L24+12
  80 002a 05A8     		add	r0, sp, #20
  81 002c FFF7FEFF 		bl	sprintf
  82              	.LVL6:
 114:main.c        ****             UART_Debug_PutString(message); 
  83              		.loc 1 114 0
  84 0030 05A8     		add	r0, sp, #20
  85 0032 FFF7FEFF 		bl	UART_Debug_PutString
  86              	.LVL7:
  87              	.L3:
 108:main.c        ****     {
  88              		.loc 1 108 0 discriminator 2
  89 0036 0134     		adds	r4, r4, #1
  90              	.LVL8:
  91              	.L2:
 108:main.c        ****     {
  92              		.loc 1 108 0 is_stmt 0 discriminator 1
  93 0038 7F2C     		cmp	r4, #127
  94 003a F0DD     		ble	.L4
  95              	.LBE2:
 115:main.c        ****         }
 116:main.c        ****         
 117:main.c        ****     }
 118:main.c        ****     
 119:main.c        ****     /******************************************/
 120:main.c        ****     /*            I2C Reading                 */
 121:main.c        ****     /******************************************/
 122:main.c        ****     
 123:main.c        ****     /* Read WHO AM I REGISTER register */
 124:main.c        ****     uint8_t who_am_i_reg;
 125:main.c        ****     ErrorCode error = I2C_Peripheral_ReadRegister(LIS3DH_DEVICE_ADDRESS,
  96              		.loc 1 125 0 is_stmt 1
  97 003c 0DF11302 		add	r2, sp, #19
  98 0040 0F21     		movs	r1, #15
  99 0042 1820     		movs	r0, #24
 100 0044 FFF7FEFF 		bl	I2C_Peripheral_ReadRegister
 101              	.LVL9:
ARM GAS  C:\Users\Lorenzo\AppData\Local\Temp\cc908eyd.s 			page 5


 126:main.c        ****                                                   LIS3DH_WHO_AM_I_REG_ADDR, 
 127:main.c        ****                                                   &who_am_i_reg);
 128:main.c        ****     if (error == NO_ERROR)
 102              		.loc 1 128 0
 103 0048 48B9     		cbnz	r0, .L5
 129:main.c        ****     {
 130:main.c        ****         sprintf(message, "WHO AM I REG: 0x%02X [Expected: 0x33]\r\n", who_am_i_reg);
 104              		.loc 1 130 0
 105 004a 9DF81320 		ldrb	r2, [sp, #19]	@ zero_extendqisi2
 106 004e 9449     		ldr	r1, .L24+16
 107 0050 05A8     		add	r0, sp, #20
 108              	.LVL10:
 109 0052 FFF7FEFF 		bl	sprintf
 110              	.LVL11:
 131:main.c        ****         UART_Debug_PutString(message); 
 111              		.loc 1 131 0
 112 0056 05A8     		add	r0, sp, #20
 113 0058 FFF7FEFF 		bl	UART_Debug_PutString
 114              	.LVL12:
 115 005c 02E0     		b	.L6
 116              	.LVL13:
 117              	.L5:
 132:main.c        ****     }
 133:main.c        ****     else
 134:main.c        ****     {
 135:main.c        ****         UART_Debug_PutString("Error occurred during I2C comm\r\n");   
 118              		.loc 1 135 0
 119 005e 9148     		ldr	r0, .L24+20
 120              	.LVL14:
 121 0060 FFF7FEFF 		bl	UART_Debug_PutString
 122              	.LVL15:
 123              	.L6:
 136:main.c        ****     }
 137:main.c        ****     
 138:main.c        ****     /*      I2C Reading Status Register       */
 139:main.c        ****     
 140:main.c        ****     uint8_t status_register; 
 141:main.c        ****     error = I2C_Peripheral_ReadRegister(LIS3DH_DEVICE_ADDRESS,
 124              		.loc 1 141 0
 125 0064 0DF11202 		add	r2, sp, #18
 126 0068 2721     		movs	r1, #39
 127 006a 1820     		movs	r0, #24
 128 006c FFF7FEFF 		bl	I2C_Peripheral_ReadRegister
 129              	.LVL16:
 142:main.c        ****                                         LIS3DH_STATUS_REG,
 143:main.c        ****                                         &status_register);
 144:main.c        ****     
 145:main.c        ****     if (error == NO_ERROR)
 130              		.loc 1 145 0
 131 0070 48B9     		cbnz	r0, .L7
 146:main.c        ****     {
 147:main.c        ****         sprintf(message, "STATUS REGISTER: 0x%02X\r\n", status_register);
 132              		.loc 1 147 0
 133 0072 9DF81220 		ldrb	r2, [sp, #18]	@ zero_extendqisi2
 134 0076 8C49     		ldr	r1, .L24+24
 135 0078 05A8     		add	r0, sp, #20
 136              	.LVL17:
ARM GAS  C:\Users\Lorenzo\AppData\Local\Temp\cc908eyd.s 			page 6


 137 007a FFF7FEFF 		bl	sprintf
 138              	.LVL18:
 148:main.c        ****         UART_Debug_PutString(message); 
 139              		.loc 1 148 0
 140 007e 05A8     		add	r0, sp, #20
 141 0080 FFF7FEFF 		bl	UART_Debug_PutString
 142              	.LVL19:
 143 0084 02E0     		b	.L8
 144              	.LVL20:
 145              	.L7:
 149:main.c        ****     }
 150:main.c        ****     else
 151:main.c        ****     {
 152:main.c        ****         UART_Debug_PutString("Error occurred during I2C comm to read status register\r\n");   
 146              		.loc 1 152 0
 147 0086 8948     		ldr	r0, .L24+28
 148              	.LVL21:
 149 0088 FFF7FEFF 		bl	UART_Debug_PutString
 150              	.LVL22:
 151              	.L8:
 153:main.c        ****     }
 154:main.c        ****     
 155:main.c        ****     /******************************************/
 156:main.c        ****     /*        Read Control Register 1         */
 157:main.c        ****     /******************************************/
 158:main.c        ****     uint8_t ctrl_reg1; 
 159:main.c        ****     error = I2C_Peripheral_ReadRegister(LIS3DH_DEVICE_ADDRESS,
 152              		.loc 1 159 0
 153 008c 0DF11102 		add	r2, sp, #17
 154 0090 2021     		movs	r1, #32
 155 0092 1820     		movs	r0, #24
 156 0094 FFF7FEFF 		bl	I2C_Peripheral_ReadRegister
 157              	.LVL23:
 160:main.c        ****                                         LIS3DH_CTRL_REG1,
 161:main.c        ****                                         &ctrl_reg1);
 162:main.c        ****     
 163:main.c        ****     if (error == NO_ERROR)
 158              		.loc 1 163 0
 159 0098 48B9     		cbnz	r0, .L9
 164:main.c        ****     {
 165:main.c        ****         sprintf(message, "CONTROL REGISTER 1: 0x%02X\r\n", ctrl_reg1);
 160              		.loc 1 165 0
 161 009a 9DF81120 		ldrb	r2, [sp, #17]	@ zero_extendqisi2
 162 009e 8449     		ldr	r1, .L24+32
 163 00a0 05A8     		add	r0, sp, #20
 164              	.LVL24:
 165 00a2 FFF7FEFF 		bl	sprintf
 166              	.LVL25:
 166:main.c        ****         UART_Debug_PutString(message); 
 167              		.loc 1 166 0
 168 00a6 05A8     		add	r0, sp, #20
 169 00a8 FFF7FEFF 		bl	UART_Debug_PutString
 170              	.LVL26:
 171 00ac 02E0     		b	.L10
 172              	.LVL27:
 173              	.L9:
 167:main.c        ****     }
ARM GAS  C:\Users\Lorenzo\AppData\Local\Temp\cc908eyd.s 			page 7


 168:main.c        ****     else
 169:main.c        ****     {
 170:main.c        ****         UART_Debug_PutString("Error occurred during I2C comm to read control register 1\r\n");   
 174              		.loc 1 170 0
 175 00ae 8148     		ldr	r0, .L24+36
 176              	.LVL28:
 177 00b0 FFF7FEFF 		bl	UART_Debug_PutString
 178              	.LVL29:
 179              	.L10:
 171:main.c        ****     }
 172:main.c        ****     
 173:main.c        ****     /******************************************/
 174:main.c        ****     /*            I2C Writing                 */
 175:main.c        ****     /******************************************/
 176:main.c        ****     
 177:main.c        ****     
 178:main.c        ****     if (ctrl_reg1 != LIS3DH_HIGH_MODE_CTRL_REG1_ACC)
 180              		.loc 1 178 0
 181 00b4 9DF81130 		ldrb	r3, [sp, #17]	@ zero_extendqisi2
 182 00b8 572B     		cmp	r3, #87
 183 00ba 28D0     		beq	.L11
 179:main.c        ****     {
 180:main.c        ****         ctrl_reg1 = LIS3DH_HIGH_MODE_CTRL_REG1_ACC;
 184              		.loc 1 180 0
 185 00bc 5722     		movs	r2, #87
 186 00be 8DF81120 		strb	r2, [sp, #17]
 181:main.c        ****     
 182:main.c        ****         error = I2C_Peripheral_WriteRegister(LIS3DH_DEVICE_ADDRESS,
 187              		.loc 1 182 0
 188 00c2 2021     		movs	r1, #32
 189 00c4 1820     		movs	r0, #24
 190 00c6 FFF7FEFF 		bl	I2C_Peripheral_WriteRegister
 191              	.LVL30:
 183:main.c        ****                                              LIS3DH_CTRL_REG1,
 184:main.c        ****                                              ctrl_reg1);
 185:main.c        ****     
 186:main.c        ****         if (error == NO_ERROR)
 192              		.loc 1 186 0
 193 00ca 48B9     		cbnz	r0, .L12
 187:main.c        ****         {
 188:main.c        ****             sprintf(message, "CONTROL REGISTER 1 successfully written as: 0x%02X\r\n", ctrl_reg1);
 194              		.loc 1 188 0
 195 00cc 9DF81120 		ldrb	r2, [sp, #17]	@ zero_extendqisi2
 196 00d0 7949     		ldr	r1, .L24+40
 197 00d2 05A8     		add	r0, sp, #20
 198              	.LVL31:
 199 00d4 FFF7FEFF 		bl	sprintf
 200              	.LVL32:
 189:main.c        ****             UART_Debug_PutString(message); 
 201              		.loc 1 189 0
 202 00d8 05A8     		add	r0, sp, #20
 203 00da FFF7FEFF 		bl	UART_Debug_PutString
 204              	.LVL33:
 205 00de 02E0     		b	.L13
 206              	.LVL34:
 207              	.L12:
 190:main.c        ****         }
ARM GAS  C:\Users\Lorenzo\AppData\Local\Temp\cc908eyd.s 			page 8


 191:main.c        ****         else
 192:main.c        ****         {
 193:main.c        ****             UART_Debug_PutString("Error occurred during I2C comm to set control register 1\r\n");  
 208              		.loc 1 193 0
 209 00e0 7648     		ldr	r0, .L24+44
 210              	.LVL35:
 211 00e2 FFF7FEFF 		bl	UART_Debug_PutString
 212              	.LVL36:
 213              	.L13:
 194:main.c        ****         }
 195:main.c        ****         error = I2C_Peripheral_ReadRegister(LIS3DH_DEVICE_ADDRESS,
 214              		.loc 1 195 0
 215 00e6 0DF11102 		add	r2, sp, #17
 216 00ea 2021     		movs	r1, #32
 217 00ec 1820     		movs	r0, #24
 218 00ee FFF7FEFF 		bl	I2C_Peripheral_ReadRegister
 219              	.LVL37:
 196:main.c        ****                                         LIS3DH_CTRL_REG1,
 197:main.c        ****                                         &ctrl_reg1);
 198:main.c        ****     
 199:main.c        ****         if (error == NO_ERROR)
 220              		.loc 1 199 0
 221 00f2 48B9     		cbnz	r0, .L14
 200:main.c        ****         {
 201:main.c        ****             sprintf(message, "CONTROL REGISTER 1 after overwrite operation: 0x%02X\r\n", ctrl_reg1)
 222              		.loc 1 201 0
 223 00f4 9DF81120 		ldrb	r2, [sp, #17]	@ zero_extendqisi2
 224 00f8 7149     		ldr	r1, .L24+48
 225 00fa 05A8     		add	r0, sp, #20
 226              	.LVL38:
 227 00fc FFF7FEFF 		bl	sprintf
 228              	.LVL39:
 202:main.c        ****             UART_Debug_PutString(message); 
 229              		.loc 1 202 0
 230 0100 05A8     		add	r0, sp, #20
 231 0102 FFF7FEFF 		bl	UART_Debug_PutString
 232              	.LVL40:
 233 0106 02E0     		b	.L11
 234              	.LVL41:
 235              	.L14:
 203:main.c        ****         }
 204:main.c        ****         else
 205:main.c        ****         {
 206:main.c        ****             UART_Debug_PutString("Error occurred during I2C comm to read control register 1\r\n"); 
 236              		.loc 1 206 0
 237 0108 6A48     		ldr	r0, .L24+36
 238              	.LVL42:
 239 010a FFF7FEFF 		bl	UART_Debug_PutString
 240              	.LVL43:
 241              	.L11:
 207:main.c        ****         }
 208:main.c        ****     }
 209:main.c        ****     
 210:main.c        ****     
 211:main.c        ****     
 212:main.c        ****     
 213:main.c        ****      /******************************************/
ARM GAS  C:\Users\Lorenzo\AppData\Local\Temp\cc908eyd.s 			page 9


 214:main.c        ****      /* I2C Reading Control register 4 */
 215:main.c        ****      /******************************************/
 216:main.c        **** 
 217:main.c        ****     
 218:main.c        ****     uint8_t ctrl_reg4;
 219:main.c        ****     
 220:main.c        ****     error = I2C_Peripheral_ReadRegister(LIS3DH_DEVICE_ADDRESS,
 242              		.loc 1 220 0
 243 010e 04AA     		add	r2, sp, #16
 244 0110 2321     		movs	r1, #35
 245 0112 1820     		movs	r0, #24
 246 0114 FFF7FEFF 		bl	I2C_Peripheral_ReadRegister
 247              	.LVL44:
 221:main.c        ****                                         LIS3DH_CTRL_REG4,
 222:main.c        ****                                         &ctrl_reg4);
 223:main.c        ****     
 224:main.c        ****     if (error == NO_ERROR)
 248              		.loc 1 224 0
 249 0118 48B9     		cbnz	r0, .L15
 225:main.c        ****     {
 226:main.c        ****         sprintf(message, "CONTROL REGISTER 4: 0x%02X\r\n", ctrl_reg4);
 250              		.loc 1 226 0
 251 011a 9DF81020 		ldrb	r2, [sp, #16]	@ zero_extendqisi2
 252 011e 6949     		ldr	r1, .L24+52
 253 0120 05A8     		add	r0, sp, #20
 254              	.LVL45:
 255 0122 FFF7FEFF 		bl	sprintf
 256              	.LVL46:
 227:main.c        ****         UART_Debug_PutString(message); 
 257              		.loc 1 227 0
 258 0126 05A8     		add	r0, sp, #20
 259 0128 FFF7FEFF 		bl	UART_Debug_PutString
 260              	.LVL47:
 261 012c 02E0     		b	.L16
 262              	.LVL48:
 263              	.L15:
 228:main.c        ****     }
 229:main.c        ****     else
 230:main.c        ****     {
 231:main.c        ****         UART_Debug_PutString("Error occurred during I2C comm to read control register4\r\n");   
 264              		.loc 1 231 0
 265 012e 6648     		ldr	r0, .L24+56
 266              	.LVL49:
 267 0130 FFF7FEFF 		bl	UART_Debug_PutString
 268              	.LVL50:
 269              	.L16:
 232:main.c        ****     }
 233:main.c        ****     
 234:main.c        ****     if (ctrl_reg4 != LIS3DH_CTRL_REG4_HIGH_MODE_4G)
 270              		.loc 1 234 0
 271 0134 9DF81030 		ldrb	r3, [sp, #16]	@ zero_extendqisi2
 272 0138 182B     		cmp	r3, #24
 273 013a 27D0     		beq	.L17
 235:main.c        ****     {
 236:main.c        ****         ctrl_reg4 = LIS3DH_CTRL_REG4_HIGH_MODE_4G; // must be changed to the appropriate value
 274              		.loc 1 236 0
 275 013c 1820     		movs	r0, #24
ARM GAS  C:\Users\Lorenzo\AppData\Local\Temp\cc908eyd.s 			page 10


 276 013e 8DF81000 		strb	r0, [sp, #16]
 237:main.c        ****         
 238:main.c        ****         error = I2C_Peripheral_WriteRegister(LIS3DH_DEVICE_ADDRESS,
 277              		.loc 1 238 0
 278 0142 0246     		mov	r2, r0
 279 0144 2321     		movs	r1, #35
 280 0146 FFF7FEFF 		bl	I2C_Peripheral_WriteRegister
 281              	.LVL51:
 239:main.c        ****                                              LIS3DH_CTRL_REG4,
 240:main.c        ****                                              ctrl_reg4); 
 241:main.c        ****          if (error == NO_ERROR)
 282              		.loc 1 241 0
 283 014a 48B9     		cbnz	r0, .L18
 242:main.c        ****         {
 243:main.c        ****             sprintf(message, "CONTROL REGISTER 4 successfully written as: 0x%02X\r\n", ctrl_reg4);
 284              		.loc 1 243 0
 285 014c 9DF81020 		ldrb	r2, [sp, #16]	@ zero_extendqisi2
 286 0150 5E49     		ldr	r1, .L24+60
 287 0152 05A8     		add	r0, sp, #20
 288              	.LVL52:
 289 0154 FFF7FEFF 		bl	sprintf
 290              	.LVL53:
 244:main.c        ****             UART_Debug_PutString(message); 
 291              		.loc 1 244 0
 292 0158 05A8     		add	r0, sp, #20
 293 015a FFF7FEFF 		bl	UART_Debug_PutString
 294              	.LVL54:
 295 015e 02E0     		b	.L19
 296              	.LVL55:
 297              	.L18:
 245:main.c        ****         }
 246:main.c        ****         else
 247:main.c        ****         {
 248:main.c        ****             UART_Debug_PutString("Error occurred during I2C comm to set control register 1\r\n");  
 298              		.loc 1 248 0
 299 0160 5648     		ldr	r0, .L24+44
 300              	.LVL56:
 301 0162 FFF7FEFF 		bl	UART_Debug_PutString
 302              	.LVL57:
 303              	.L19:
 249:main.c        ****         }
 250:main.c        ****         
 251:main.c        ****         error = I2C_Peripheral_ReadRegister(LIS3DH_DEVICE_ADDRESS,
 304              		.loc 1 251 0
 305 0166 04AA     		add	r2, sp, #16
 306 0168 2321     		movs	r1, #35
 307 016a 1820     		movs	r0, #24
 308 016c FFF7FEFF 		bl	I2C_Peripheral_ReadRegister
 309              	.LVL58:
 252:main.c        ****                                             LIS3DH_CTRL_REG4,
 253:main.c        ****                                             &ctrl_reg4);
 254:main.c        ****         
 255:main.c        ****         if (error == NO_ERROR)
 310              		.loc 1 255 0
 311 0170 48B9     		cbnz	r0, .L20
 256:main.c        ****         {
 257:main.c        ****             sprintf(message, "CONTROL REGISTER 4 after being updated: 0x%02X\r\n", ctrl_reg4);
ARM GAS  C:\Users\Lorenzo\AppData\Local\Temp\cc908eyd.s 			page 11


 312              		.loc 1 257 0
 313 0172 9DF81020 		ldrb	r2, [sp, #16]	@ zero_extendqisi2
 314 0176 5649     		ldr	r1, .L24+64
 315 0178 05A8     		add	r0, sp, #20
 316              	.LVL59:
 317 017a FFF7FEFF 		bl	sprintf
 318              	.LVL60:
 258:main.c        ****             UART_Debug_PutString(message); 
 319              		.loc 1 258 0
 320 017e 05A8     		add	r0, sp, #20
 321 0180 FFF7FEFF 		bl	UART_Debug_PutString
 322              	.LVL61:
 323 0184 02E0     		b	.L17
 324              	.LVL62:
 325              	.L20:
 259:main.c        ****         }
 260:main.c        ****         else
 261:main.c        ****         {
 262:main.c        ****             UART_Debug_PutString("Error occurred during I2C comm to read control register4\r\n");  
 326              		.loc 1 262 0
 327 0186 5048     		ldr	r0, .L24+56
 328              	.LVL63:
 329 0188 FFF7FEFF 		bl	UART_Debug_PutString
 330              	.LVL64:
 331              	.L17:
 263:main.c        ****         }
 264:main.c        ****     }
 265:main.c        ****     
 266:main.c        ****     //Timer start
 267:main.c        ****     Timer_Start();
 332              		.loc 1 267 0
 333 018c FFF7FEFF 		bl	Timer_Start
 334              	.LVL65:
 268:main.c        ****     
 269:main.c        ****     // Variables declaration
 270:main.c        ****     int16_t OutAccX;
 271:main.c        ****     int16_t OutAccY;
 272:main.c        ****     int16_t OutAccZ;
 273:main.c        ****     uint8_t header = 0xA0;
 274:main.c        ****     uint8_t footer = 0xC0;
 275:main.c        ****     uint8_t OutArray[TRANSMIT_BUFFER_SIZE]; 
 276:main.c        ****     float32 AccXms2f;
 277:main.c        ****     float32 AccYms2f;
 278:main.c        ****     float32 AccZms2f;
 279:main.c        ****     int32 AccXms2;
 280:main.c        ****     int32 AccYms2;
 281:main.c        ****     int32 AccZms2;
 282:main.c        ****     
 283:main.c        ****     //Header and footer set up
 284:main.c        ****     OutArray[0] = header;
 335              		.loc 1 284 0
 336 0190 A023     		movs	r3, #160
 337 0192 8DF80030 		strb	r3, [sp]
 285:main.c        ****     OutArray[TRANSMIT_BUFFER_SIZE - 1] = footer;
 338              		.loc 1 285 0
 339 0196 C023     		movs	r3, #192
 340 0198 8DF80D30 		strb	r3, [sp, #13]
ARM GAS  C:\Users\Lorenzo\AppData\Local\Temp\cc908eyd.s 			page 12


 286:main.c        **** 
 287:main.c        ****     PacketReadyFlag = 0; // Initialize send flag
 341              		.loc 1 287 0
 342 019c 0022     		movs	r2, #0
 343 019e 4D4B     		ldr	r3, .L24+68
 344 01a0 1A70     		strb	r2, [r3]
 345              	.LVL66:
 346              	.L21:
 288:main.c        ****     
 289:main.c        ****     for(;;)
 290:main.c        ****     {
 291:main.c        ****   
 292:main.c        ****         if (PacketReadyFlag == 1) //if new data are available and read
 347              		.loc 1 292 0
 348 01a2 4C4B     		ldr	r3, .L24+68
 349 01a4 1B78     		ldrb	r3, [r3]	@ zero_extendqisi2
 350 01a6 DBB2     		uxtb	r3, r3
 351 01a8 012B     		cmp	r3, #1
 352 01aa FAD1     		bne	.L21
 293:main.c        ****         {
 294:main.c        ****             // send flag is reset to 0, new data can be read
 295:main.c        ****             PacketReadyFlag = 0;
 353              		.loc 1 295 0
 354 01ac 0022     		movs	r2, #0
 355 01ae 494B     		ldr	r3, .L24+68
 356 01b0 1A70     		strb	r2, [r3]
 296:main.c        ****             
 297:main.c        ****             /*  Conversion of the 3 axial outputs of the Accelerometer to 3 
 298:main.c        ****             right-justified 16-bit integers with the correct scaling (mg).
 299:main.c        ****             Shift of 6 positions since in normal mode the output data are 10-bit output. */
 300:main.c        ****             OutAccX = ((int16)((AccData[0]) | ((AccData[1])<<8))>>4)*CONVERSION_FACTOR_DIGIT_MG;
 357              		.loc 1 300 0
 358 01b2 494A     		ldr	r2, .L24+72
 359 01b4 1378     		ldrb	r3, [r2]	@ zero_extendqisi2
 360 01b6 5078     		ldrb	r0, [r2, #1]	@ zero_extendqisi2
 361 01b8 43EA0020 		orr	r0, r3, r0, lsl #8
 362 01bc 40F30B10 		sbfx	r0, r0, #4, #12
 363              	.LVL67:
 301:main.c        ****             OutAccY = ((int16)((AccData[2]) | ((AccData[3])<<8))>>4)*CONVERSION_FACTOR_DIGIT_MG;
 364              		.loc 1 301 0
 365 01c0 9378     		ldrb	r3, [r2, #2]	@ zero_extendqisi2
 366 01c2 D578     		ldrb	r5, [r2, #3]	@ zero_extendqisi2
 367 01c4 43EA0525 		orr	r5, r3, r5, lsl #8
 368 01c8 45F30B15 		sbfx	r5, r5, #4, #12
 369 01cc 6D00     		lsls	r5, r5, #1
 370              	.LVL68:
 302:main.c        ****             OutAccZ = ((int16)((AccData[4]) | ((AccData[5])<<8))>>4)*CONVERSION_FACTOR_DIGIT_MG;
 371              		.loc 1 302 0
 372 01ce 1379     		ldrb	r3, [r2, #4]	@ zero_extendqisi2
 373 01d0 5479     		ldrb	r4, [r2, #5]	@ zero_extendqisi2
 374 01d2 43EA0424 		orr	r4, r3, r4, lsl #8
 375 01d6 44F30B14 		sbfx	r4, r4, #4, #12
 376 01da 6400     		lsls	r4, r4, #1
 377              	.LVL69:
 303:main.c        ****             
 304:main.c        ****             /* Conversion from mg to m/s^2 (the factor x10^(-3) is omitted since 
 305:main.c        ****             in the following passages there is the need to multiply x10^3 to mantain 
ARM GAS  C:\Users\Lorenzo\AppData\Local\Temp\cc908eyd.s 			page 13


 306:main.c        ****             3 decimals, so the operation is reduced). The variables are now float32 */
 307:main.c        ****             AccXms2f = (OutAccX)*g_CONSTANT;
 378              		.loc 1 307 0
 379 01dc 4000     		lsls	r0, r0, #1
 380              	.LVL70:
 381 01de FFF7FEFF 		bl	__aeabi_i2d
 382              	.LVL71:
 383 01e2 2BA3     		adr	r3, .L24
 384 01e4 D3E90023 		ldrd	r2, [r3]
 385 01e8 FFF7FEFF 		bl	__aeabi_dmul
 386              	.LVL72:
 387 01ec FFF7FEFF 		bl	__aeabi_d2f
 388              	.LVL73:
 389 01f0 0746     		mov	r7, r0
 390              	.LVL74:
 308:main.c        ****             AccYms2f = (OutAccY)*g_CONSTANT;
 391              		.loc 1 308 0
 392 01f2 2846     		mov	r0, r5
 393              	.LVL75:
 394 01f4 FFF7FEFF 		bl	__aeabi_i2d
 395              	.LVL76:
 396 01f8 25A3     		adr	r3, .L24
 397 01fa D3E90023 		ldrd	r2, [r3]
 398 01fe FFF7FEFF 		bl	__aeabi_dmul
 399              	.LVL77:
 400 0202 FFF7FEFF 		bl	__aeabi_d2f
 401              	.LVL78:
 402 0206 0546     		mov	r5, r0
 403              	.LVL79:
 309:main.c        ****             AccZms2f = (OutAccZ)*g_CONSTANT;
 404              		.loc 1 309 0
 405 0208 2046     		mov	r0, r4
 406              	.LVL80:
 407 020a FFF7FEFF 		bl	__aeabi_i2d
 408              	.LVL81:
 409 020e 20A3     		adr	r3, .L24
 410 0210 D3E90023 		ldrd	r2, [r3]
 411 0214 FFF7FEFF 		bl	__aeabi_dmul
 412              	.LVL82:
 413 0218 FFF7FEFF 		bl	__aeabi_d2f
 414              	.LVL83:
 415 021c 0646     		mov	r6, r0
 416              	.LVL84:
 310:main.c        ****             
 311:main.c        ****             // Conversion from float32 to int32
 312:main.c        ****             AccXms2 = (int32) AccXms2f;
 417              		.loc 1 312 0
 418 021e 3846     		mov	r0, r7
 419              	.LVL85:
 420 0220 FFF7FEFF 		bl	__aeabi_f2iz
 421              	.LVL86:
 422 0224 0446     		mov	r4, r0
 423              	.LVL87:
 313:main.c        ****             AccYms2 = (int32) AccYms2f;
 424              		.loc 1 313 0
 425 0226 2846     		mov	r0, r5
 426              	.LVL88:
ARM GAS  C:\Users\Lorenzo\AppData\Local\Temp\cc908eyd.s 			page 14


 427 0228 FFF7FEFF 		bl	__aeabi_f2iz
 428              	.LVL89:
 429 022c 0546     		mov	r5, r0
 430              	.LVL90:
 314:main.c        ****             AccZms2 = (int32) AccZms2f;
 431              		.loc 1 314 0
 432 022e 3046     		mov	r0, r6
 433              	.LVL91:
 434 0230 FFF7FEFF 		bl	__aeabi_f2iz
 435              	.LVL92:
 315:main.c        ****             
 316:main.c        ****             // data preparing for UART serial Communication
 317:main.c        ****             OutArray[1] = (uint8_t)(AccXms2 & 0xFF); 
 436              		.loc 1 317 0
 437 0234 8DF80140 		strb	r4, [sp, #1]
 318:main.c        ****             OutArray[2] = (uint8_t)((AccXms2 >> 8) & 0xFF);
 438              		.loc 1 318 0
 439 0238 C4F30723 		ubfx	r3, r4, #8, #8
 440 023c 8DF80230 		strb	r3, [sp, #2]
 319:main.c        ****             OutArray[3] = (uint8_t)((AccXms2 >> 16) & 0xFF);
 441              		.loc 1 319 0
 442 0240 C4F30743 		ubfx	r3, r4, #16, #8
 443 0244 8DF80330 		strb	r3, [sp, #3]
 320:main.c        ****             OutArray[4] = (uint8_t)(AccXms2 >> 24);
 444              		.loc 1 320 0
 445 0248 240E     		lsrs	r4, r4, #24
 446              	.LVL93:
 447 024a 8DF80440 		strb	r4, [sp, #4]
 321:main.c        ****             OutArray[5] = (uint8_t)(AccYms2 & 0xFF); 
 448              		.loc 1 321 0
 449 024e 8DF80550 		strb	r5, [sp, #5]
 322:main.c        ****             OutArray[6] = (uint8_t)((AccYms2 >> 8) & 0xFF);
 450              		.loc 1 322 0
 451 0252 C5F30723 		ubfx	r3, r5, #8, #8
 452 0256 8DF80630 		strb	r3, [sp, #6]
 323:main.c        ****             OutArray[7] = (uint8_t)((AccYms2 >> 16) & 0xFF);
 453              		.loc 1 323 0
 454 025a C5F30743 		ubfx	r3, r5, #16, #8
 455 025e 8DF80730 		strb	r3, [sp, #7]
 324:main.c        ****             OutArray[8] = (uint8_t)(AccYms2 >> 24);
 456              		.loc 1 324 0
 457 0262 2B0E     		lsrs	r3, r5, #24
 458 0264 8DF80830 		strb	r3, [sp, #8]
 325:main.c        ****             OutArray[9] = (uint8_t)(AccZms2 & 0xFF); 
 459              		.loc 1 325 0
 460 0268 8DF80900 		strb	r0, [sp, #9]
 326:main.c        ****             OutArray[10] = (uint8_t)((AccZms2 >> 8) & 0xFF);
 461              		.loc 1 326 0
 462 026c C0F30723 		ubfx	r3, r0, #8, #8
 463 0270 8DF80A30 		strb	r3, [sp, #10]
 327:main.c        ****             OutArray[11] = (uint8_t)((AccZms2 >> 16) & 0xFF);
 464              		.loc 1 327 0
 465 0274 C0F30743 		ubfx	r3, r0, #16, #8
 466 0278 8DF80B30 		strb	r3, [sp, #11]
 328:main.c        ****             OutArray[12] = (uint8_t)((AccZms2 >> 24) & 0xFF);
 467              		.loc 1 328 0
 468 027c 000E     		lsrs	r0, r0, #24
ARM GAS  C:\Users\Lorenzo\AppData\Local\Temp\cc908eyd.s 			page 15


 469              	.LVL94:
 470 027e 8DF80C00 		strb	r0, [sp, #12]
 329:main.c        ****             
 330:main.c        ****             // Data sending
 331:main.c        ****             UART_Debug_PutArray(OutArray, TRANSMIT_BUFFER_SIZE);
 471              		.loc 1 331 0
 472 0282 0E21     		movs	r1, #14
 473 0284 6846     		mov	r0, sp
 474 0286 FFF7FEFF 		bl	UART_Debug_PutArray
 475              	.LVL95:
 476 028a 8AE7     		b	.L21
 477              	.L25:
 478 028c AFF30080 		.align	3
 479              	.L24:
 480 0290 1F85EB51 		.word	1374389535
 481 0294 B89E2340 		.word	1076076216
 482 0298 00000000 		.word	Custom_TIMER_ISR
 483 029c 00000000 		.word	.LC0
 484 02a0 20000000 		.word	.LC1
 485 02a4 48000000 		.word	.LC2
 486 02a8 6C000000 		.word	.LC3
 487 02ac 88000000 		.word	.LC4
 488 02b0 C4000000 		.word	.LC5
 489 02b4 E4000000 		.word	.LC6
 490 02b8 20010000 		.word	.LC7
 491 02bc 58010000 		.word	.LC8
 492 02c0 94010000 		.word	.LC9
 493 02c4 CC010000 		.word	.LC10
 494 02c8 EC010000 		.word	.LC11
 495 02cc 28020000 		.word	.LC12
 496 02d0 60020000 		.word	.LC13
 497 02d4 00000000 		.word	PacketReadyFlag
 498 02d8 00000000 		.word	AccData
 499              		.cfi_endproc
 500              	.LFE64:
 501              		.size	main, .-main
 502              		.comm	PacketReadyFlag,1,1
 503              		.comm	AccData,6,4
 504              		.section	.rodata.str1.4,"aMS",%progbits,1
 505              		.align	2
 506              	.LC0:
 507 0000 44657669 		.ascii	"Device 0x%02X is connected\015\012\000"
 507      63652030 
 507      78253032 
 507      58206973 
 507      20636F6E 
 508 001d 000000   		.space	3
 509              	.LC1:
 510 0020 57484F20 		.ascii	"WHO AM I REG: 0x%02X [Expected: 0x33]\015\012\000"
 510      414D2049 
 510      20524547 
 510      3A203078 
 510      25303258 
 511              	.LC2:
 512 0048 4572726F 		.ascii	"Error occurred during I2C comm\015\012\000"
 512      72206F63 
 512      63757272 
ARM GAS  C:\Users\Lorenzo\AppData\Local\Temp\cc908eyd.s 			page 16


 512      65642064 
 512      7572696E 
 513 0069 000000   		.space	3
 514              	.LC3:
 515 006c 53544154 		.ascii	"STATUS REGISTER: 0x%02X\015\012\000"
 515      55532052 
 515      45474953 
 515      5445523A 
 515      20307825 
 516 0086 0000     		.space	2
 517              	.LC4:
 518 0088 4572726F 		.ascii	"Error occurred during I2C comm to read status regis"
 518      72206F63 
 518      63757272 
 518      65642064 
 518      7572696E 
 519 00bb 7465720D 		.ascii	"ter\015\012\000"
 519      0A00
 520 00c1 000000   		.space	3
 521              	.LC5:
 522 00c4 434F4E54 		.ascii	"CONTROL REGISTER 1: 0x%02X\015\012\000"
 522      524F4C20 
 522      52454749 
 522      53544552 
 522      20313A20 
 523 00e1 000000   		.space	3
 524              	.LC6:
 525 00e4 4572726F 		.ascii	"Error occurred during I2C comm to read control regi"
 525      72206F63 
 525      63757272 
 525      65642064 
 525      7572696E 
 526 0117 73746572 		.ascii	"ster 1\015\012\000"
 526      20310D0A 
 526      00
 527              	.LC7:
 528 0120 434F4E54 		.ascii	"CONTROL REGISTER 1 successfully written as: 0x%02X\015"
 528      524F4C20 
 528      52454749 
 528      53544552 
 528      20312073 
 529 0153 0A00     		.ascii	"\012\000"
 530 0155 000000   		.space	3
 531              	.LC8:
 532 0158 4572726F 		.ascii	"Error occurred during I2C comm to set control regis"
 532      72206F63 
 532      63757272 
 532      65642064 
 532      7572696E 
 533 018b 74657220 		.ascii	"ter 1\015\012\000"
 533      310D0A00 
 534 0193 00       		.space	1
 535              	.LC9:
 536 0194 434F4E54 		.ascii	"CONTROL REGISTER 1 after overwrite operation: 0x%02"
 536      524F4C20 
 536      52454749 
 536      53544552 
ARM GAS  C:\Users\Lorenzo\AppData\Local\Temp\cc908eyd.s 			page 17


 536      20312061 
 537 01c7 580D0A00 		.ascii	"X\015\012\000"
 538 01cb 00       		.space	1
 539              	.LC10:
 540 01cc 434F4E54 		.ascii	"CONTROL REGISTER 4: 0x%02X\015\012\000"
 540      524F4C20 
 540      52454749 
 540      53544552 
 540      20343A20 
 541 01e9 000000   		.space	3
 542              	.LC11:
 543 01ec 4572726F 		.ascii	"Error occurred during I2C comm to read control regi"
 543      72206F63 
 543      63757272 
 543      65642064 
 543      7572696E 
 544 021f 73746572 		.ascii	"ster4\015\012\000"
 544      340D0A00 
 545 0227 00       		.space	1
 546              	.LC12:
 547 0228 434F4E54 		.ascii	"CONTROL REGISTER 4 successfully written as: 0x%02X\015"
 547      524F4C20 
 547      52454749 
 547      53544552 
 547      20342073 
 548 025b 0A00     		.ascii	"\012\000"
 549 025d 000000   		.space	3
 550              	.LC13:
 551 0260 434F4E54 		.ascii	"CONTROL REGISTER 4 after being updated: 0x%02X\015\012"
 551      524F4C20 
 551      52454749 
 551      53544552 
 551      20342061 
 552 0290 00       		.ascii	"\000"
 553              		.text
 554              	.Letext0:
 555              		.file 2 "c:\\program files (x86)\\cypress\\psoc creator\\4.3\\psoc creator\\import\\gnu\\arm\\5.4.
 556              		.file 3 "c:\\program files (x86)\\cypress\\psoc creator\\4.3\\psoc creator\\import\\gnu\\arm\\5.4.
 557              		.file 4 "Generated_Source\\PSoC5/cytypes.h"
 558              		.file 5 "ErrorCodes.h"
 559              		.file 6 "Generated_Source\\PSoC5/core_cm3.h"
 560              		.file 7 "InterruptRoutines.h"
 561              		.file 8 "I2C_Interface.h"
 562              		.file 9 "c:\\program files (x86)\\cypress\\psoc creator\\4.3\\psoc creator\\import\\gnu\\arm\\5.4.
 563              		.file 10 "Generated_Source\\PSoC5/UART_Debug.h"
 564              		.file 11 "Generated_Source\\PSoC5/isr_TIMER.h"
 565              		.file 12 "Generated_Source\\PSoC5/CyLib.h"
 566              		.file 13 "Generated_Source\\PSoC5/Timer.h"